(dp0
Vengine
p1
S'pdflatex'
p2
sVpackages
p3
c__builtin__
set
p4
((lp5
Vgraphicx
p6
aVmulticol
p7
aVfootnote
p8
aVbabel
p9
aVabstract
p10
aVlistings
p11
aVlipsum
p12
aVdblfnote
p13
aVgeometry
p14
aValgpseudocode
p15
aVurl
p16
aValgorithmicx
p17
aVinputenc
p18
atp19
Rp20
sVfiles_with_guttermarks
p21
g4
((lp22
S'finalPaper.tex'
p23
atp24
Rp25
sVsynctex
p26
I01
s.