(dp0
Vengine
p1
S'pdflatex'
p2
sVpackages
p3
c__builtin__
set
p4
((lp5
Vinputenc
p6
aVcite
p7
atp8
Rp9
sVfiles_with_guttermarks
p10
g4
((lp11
V/Users/peixianwang/spring2016/astr510/finalProject/introduction draft/./introductionDraft.tex
p12
aS'introductionDraft.tex'
p13
aV/Users/peixianwang/spring2016/astr510/finalProject/introduction_draft/./introductionDraft.tex
p14
aV/Users/peixianwang/spring2016/astr510/finalProject/introduction_draft/introductionDraft.tex
p15
aV/Users/peixianwang/spring2016/astr510/finalProject/introduction draft/introductionDraft.tex
p16
atp17
Rp18
sVsynctex
p19
I01
s.