(dp0
Vengine
p1
S'pdflatex'
p2
sVpackages
p3
c__builtin__
set
p4
((lp5
Vinputenc
p6
aVcite
p7
atp8
Rp9
sVfiles_with_guttermarks
p10
g4
((lp11
V/Users/peixianwang/spring2016/astr510/finalProject/method:test sections/method:test.tex
p12
aS'method:test.tex'
p13
atp14
Rp15
sVsynctex
p16
I01
s.